target datalayout = "e-m:e-p270:32:32-p271:32:32-p272:64:64-i64:64-i128:128-f80:128-n8:16:32:64-S128"
target triple = "x86_64-pc-linux-gnu"

%struct.token = type { %union.anon, i32, i32 }
%union.anon = type { ptr }
%struct.tokens = type { ptr, i64, i64 }

@.str.14 = private unnamed_addr constant [53 x i8] c"JS-Norm: Replacing tokens %lu - %lu with %lu tokens\0A\00", align 1

; Function Attrs: nounwind uwtable
define internal i32 @tokens_ensure_capacity(ptr noundef %0, i64 noundef %1) #0 {
  %3 = alloca i32, align 4
  %4 = alloca ptr, align 8
  %5 = alloca i64, align 8
  %6 = alloca ptr, align 8
  %7 = alloca i32, align 4
  store ptr %0, ptr %4, align 8, !tbaa !8
  store i64 %1, ptr %5, align 8, !tbaa !10
  %8 = load ptr, ptr %4, align 8, !tbaa !8
  %9 = getelementptr inbounds nuw %struct.tokens, ptr %8, i32 0, i32 2
  %10 = load i64, ptr %9, align 8, !tbaa !84
  %11 = load i64, ptr %5, align 8, !tbaa !10
  %12 = icmp ult i64 %10, %11
  br i1 %12, label %13, label %35

13:                                               ; preds = %2
  call void @llvm.lifetime.start.p0(i64 8, ptr %6) #13
  %14 = load i64, ptr %5, align 8, !tbaa !10
  %15 = add i64 %14, 1024
  store i64 %15, ptr %5, align 8, !tbaa !10
  %16 = load ptr, ptr %4, align 8, !tbaa !8
  %17 = getelementptr inbounds nuw %struct.tokens, ptr %16, i32 0, i32 0
  %18 = load ptr, ptr %17, align 8, !tbaa !25
  %19 = load i64, ptr %5, align 8, !tbaa !10
  %20 = mul i64 %19, 16
  %21 = call ptr @cli_max_realloc(ptr noundef %18, i64 noundef %20)
  store ptr %21, ptr %6, align 8, !tbaa !45
  %22 = load ptr, ptr %6, align 8, !tbaa !45
  %23 = icmp ne ptr %22, null
  br i1 %23, label %25, label %24

24:                                               ; preds = %13
  store i32 20, ptr %3, align 4
  store i32 1, ptr %7, align 4
  br label %32

25:                                               ; preds = %13
  %26 = load ptr, ptr %6, align 8, !tbaa !45
  %27 = load ptr, ptr %4, align 8, !tbaa !8
  %28 = getelementptr inbounds nuw %struct.tokens, ptr %27, i32 0, i32 0
  store ptr %26, ptr %28, align 8, !tbaa !25
  %29 = load i64, ptr %5, align 8, !tbaa !10
  %30 = load ptr, ptr %4, align 8, !tbaa !8
  %31 = getelementptr inbounds nuw %struct.tokens, ptr %30, i32 0, i32 2
  store i64 %29, ptr %31, align 8, !tbaa !84
  store i32 0, ptr %7, align 4
  br label %32

32:                                               ; preds = %25, %24
  call void @llvm.lifetime.end.p0(i64 8, ptr %6) #13
  %33 = load i32, ptr %7, align 4
  switch i32 %33, label %38 [
    i32 0, label %34
    i32 1, label %36
  ]

34:                                               ; preds = %32
  br label %35

35:                                               ; preds = %34, %2
  store i32 0, ptr %3, align 4
  br label %36

36:                                               ; preds = %35, %32
  %37 = load i32, ptr %3, align 4
  ret i32 %37

38:                                               ; preds = %32
  unreachable
}

; Function Attrs: nounwind uwtable
define internal void @free_token(ptr noundef %0) #0 {
  %2 = alloca ptr, align 8
  store ptr %0, ptr %2, align 8, !tbaa !45
  %3 = load ptr, ptr %2, align 8, !tbaa !45
  %4 = getelementptr inbounds nuw %struct.token, ptr %3, i32 0, i32 2
  %5 = load i32, ptr %4, align 4, !tbaa !28
  %6 = icmp eq i32 %5, 2
  br i1 %6, label %7, label %19

7:                                                ; preds = %1
  %8 = load ptr, ptr %2, align 8, !tbaa !45
  %9 = getelementptr inbounds nuw %struct.token, ptr %8, i32 0, i32 0
  %10 = load ptr, ptr %9, align 8, !tbaa !12
  %11 = icmp ne ptr null, %10
  br i1 %11, label %12, label %18

12:                                               ; preds = %7
  %13 = load ptr, ptr %2, align 8, !tbaa !45
  %14 = getelementptr inbounds nuw %struct.token, ptr %13, i32 0, i32 0
  %15 = load ptr, ptr %14, align 8, !tbaa !12
  call void @free(ptr noundef %15) #13
  %16 = load ptr, ptr %2, align 8, !tbaa !45
  %17 = getelementptr inbounds nuw %struct.token, ptr %16, i32 0, i32 0
  store ptr null, ptr %17, align 8, !tbaa !12
  br label %18

18:                                               ; preds = %12, %7
  br label %19

19:                                               ; preds = %18, %1
  ret void
}

; Function Attrs: nounwind uwtable
define internal i32 @replace_token_range(ptr noundef %0, i64 noundef %1, i64 noundef %2, ptr noundef %3) #0 {
  %5 = alloca i32, align 4
  %6 = alloca ptr, align 8
  %7 = alloca i64, align 8
  %8 = alloca i64, align 8
  %9 = alloca ptr, align 8
  %10 = alloca i64, align 8
  %11 = alloca i64, align 8
  %12 = alloca i32, align 4
  store ptr %0, ptr %6, align 8, !tbaa !8
  store i64 %1, ptr %7, align 8, !tbaa !10
  store i64 %2, ptr %8, align 8, !tbaa !10
  store ptr %3, ptr %9, align 8, !tbaa !8
  call void @llvm.lifetime.start.p0(i64 8, ptr %10) #13
  %13 = load ptr, ptr %9, align 8, !tbaa !8
  %14 = icmp ne ptr %13, null
  br i1 %14, label %15, label %19

15:                                               ; preds = %4
  %16 = load ptr, ptr %9, align 8, !tbaa !8
  %17 = getelementptr inbounds nuw %struct.tokens, ptr %16, i32 0, i32 1
  %18 = load i64, ptr %17, align 8, !tbaa !24
  br label %20

19:                                               ; preds = %4
  br label %20

20:                                               ; preds = %19, %15
  %21 = phi i64 [ %18, %15 ], [ 0, %19 ]
  store i64 %21, ptr %10, align 8, !tbaa !10
  call void @llvm.lifetime.start.p0(i64 8, ptr %11) #13
  %22 = load i64, ptr %7, align 8, !tbaa !10
  %23 = load i64, ptr %8, align 8, !tbaa !10
  %24 = load i64, ptr %10, align 8, !tbaa !10
  call void (ptr, ...) @cli_dbgmsg(ptr noundef @.str.14, i64 noundef %22, i64 noundef %23, i64 noundef %24)
  %25 = load i64, ptr %7, align 8, !tbaa !10
  %26 = load ptr, ptr %6, align 8, !tbaa !8
  %27 = getelementptr inbounds nuw %struct.tokens, ptr %26, i32 0, i32 1
  %28 = load i64, ptr %27, align 8, !tbaa !24
  %29 = icmp uge i64 %25, %28
  br i1 %29, label %36, label %30

30:                                               ; preds = %20
  %31 = load i64, ptr %8, align 8, !tbaa !10
  %32 = load ptr, ptr %6, align 8, !tbaa !8
  %33 = getelementptr inbounds nuw %struct.tokens, ptr %32, i32 0, i32 1
  %34 = load i64, ptr %33, align 8, !tbaa !24
  %35 = icmp ugt i64 %31, %34
  br i1 %35, label %36, label %37

36:                                               ; preds = %30, %20
  store i32 3, ptr %5, align 4
  store i32 1, ptr %12, align 4
  br label %113

37:                                               ; preds = %30
  %38 = load i64, ptr %7, align 8, !tbaa !10
  store i64 %38, ptr %11, align 8, !tbaa !10
  br label %39

39:                                               ; preds = %49, %37
  %40 = load i64, ptr %11, align 8, !tbaa !10
  %41 = load i64, ptr %8, align 8, !tbaa !10
  %42 = icmp ult i64 %40, %41
  br i1 %42, label %43, label %52

43:                                               ; preds = %39
  %44 = load ptr, ptr %6, align 8, !tbaa !8
  %45 = getelementptr inbounds nuw %struct.tokens, ptr %44, i32 0, i32 0
  %46 = load ptr, ptr %45, align 8, !tbaa !25
  %47 = load i64, ptr %11, align 8, !tbaa !10
  %48 = getelementptr inbounds nuw %struct.token, ptr %46, i64 %47
  call void @free_token(ptr noundef %48)
  br label %49

49:                                               ; preds = %43
  %50 = load i64, ptr %11, align 8, !tbaa !10
  %51 = add i64 %50, 1
  store i64 %51, ptr %11, align 8, !tbaa !10
  br label %39

52:                                               ; preds = %39
  %53 = load ptr, ptr %6, align 8, !tbaa !8
  %54 = load ptr, ptr %6, align 8, !tbaa !8
  %55 = getelementptr inbounds nuw %struct.tokens, ptr %54, i32 0, i32 1
  %56 = load i64, ptr %55, align 8, !tbaa !24
  %57 = load i64, ptr %8, align 8, !tbaa !10
  %58 = load i64, ptr %7, align 8, !tbaa !10
  %59 = sub i64 %57, %58
  %60 = sub i64 %56, %59
  %61 = load i64, ptr %10, align 8, !tbaa !10
  %62 = add i64 %60, %61
  %63 = call i32 @tokens_ensure_capacity(ptr noundef %53, i64 noundef %62)
  %64 = icmp ne i32 %63, 0
  br i1 %64, label %65, label %66

65:                                               ; preds = %52
  store i32 20, ptr %5, align 4
  store i32 1, ptr %12, align 4
  br label %113

66:                                               ; preds = %52
  %67 = load ptr, ptr %6, align 8, !tbaa !8
  %68 = getelementptr inbounds nuw %struct.tokens, ptr %67, i32 0, i32 0
  %69 = load ptr, ptr %68, align 8, !tbaa !25
  %70 = load i64, ptr %7, align 8, !tbaa !10
  %71 = load i64, ptr %10, align 8, !tbaa !10
  %72 = add i64 %70, %71
  %73 = getelementptr inbounds nuw %struct.token, ptr %69, i64 %72
  %74 = load ptr, ptr %6, align 8, !tbaa !8
  %75 = getelementptr inbounds nuw %struct.tokens, ptr %74, i32 0, i32 0
  %76 = load ptr, ptr %75, align 8, !tbaa !25
  %77 = load i64, ptr %8, align 8, !tbaa !10
  %78 = getelementptr inbounds nuw %struct.token, ptr %76, i64 %77
  %79 = load ptr, ptr %6, align 8, !tbaa !8
  %80 = getelementptr inbounds nuw %struct.tokens, ptr %79, i32 0, i32 1
  %81 = load i64, ptr %80, align 8, !tbaa !24
  %82 = load i64, ptr %8, align 8, !tbaa !10
  %83 = sub i64 %81, %82
  %84 = mul i64 %83, 16
  call void @llvm.memmove.p0.p0.i64(ptr align 8 %73, ptr align 8 %78, i64 %84, i1 false)
  %85 = load ptr, ptr %9, align 8, !tbaa !8
  %86 = icmp ne ptr %85, null
  br i1 %86, label %87, label %101

87:                                               ; preds = %66
  %88 = load i64, ptr %10, align 8, !tbaa !10
  %89 = icmp ugt i64 %88, 0
  br i1 %89, label %90, label %101

90:                                               ; preds = %87
  %91 = load ptr, ptr %6, align 8, !tbaa !8
  %92 = getelementptr inbounds nuw %struct.tokens, ptr %91, i32 0, i32 0
  %93 = load ptr, ptr %92, align 8, !tbaa !25
  %94 = load i64, ptr %7, align 8, !tbaa !10
  %95 = getelementptr inbounds nuw %struct.token, ptr %93, i64 %94
  %96 = load ptr, ptr %9, align 8, !tbaa !8
  %97 = getelementptr inbounds nuw %struct.tokens, ptr %96, i32 0, i32 0
  %98 = load ptr, ptr %97, align 8, !tbaa !25
  %99 = load i64, ptr %10, align 8, !tbaa !10
  %100 = mul i64 %99, 16
  call void @llvm.memcpy.p0.p0.i64(ptr align 8 %95, ptr align 8 %98, i64 %100, i1 false)
  br label %101

101:                                              ; preds = %90, %87, %66
  %102 = load ptr, ptr %6, align 8, !tbaa !8
  %103 = getelementptr inbounds nuw %struct.tokens, ptr %102, i32 0, i32 1
  %104 = load i64, ptr %103, align 8, !tbaa !24
  %105 = load i64, ptr %8, align 8, !tbaa !10
  %106 = load i64, ptr %7, align 8, !tbaa !10
  %107 = sub i64 %105, %106
  %108 = sub i64 %104, %107
  %109 = load i64, ptr %10, align 8, !tbaa !10
  %110 = add i64 %108, %109
  %111 = load ptr, ptr %6, align 8, !tbaa !8
  %112 = getelementptr inbounds nuw %struct.tokens, ptr %111, i32 0, i32 1
  store i64 %110, ptr %112, align 8, !tbaa !24
  store i32 0, ptr %5, align 4
  store i32 1, ptr %12, align 4
  br label %113

113:                                              ; preds = %101, %65, %36
  call void @llvm.lifetime.end.p0(i64 8, ptr %11) #13
  call void @llvm.lifetime.end.p0(i64 8, ptr %10) #13
  %114 = load i32, ptr %5, align 4
  ret i32 %114
}