; Function Attrs: nounwind uwtable
define internal fastcc range(i32 0, 21) i32 @replace_token_range(ptr noundef captures(none) %0, i64 noundef %1, i64 noundef %2, ptr noundef readonly %3) unnamed_addr #0 {
  %5 = icmp ne ptr %3, null
  br i1 %5, label %6, label %9

6:                                                ; preds = %4
  %7 = getelementptr inbounds nuw i8, ptr %3, i64 8
  %8 = load i64, ptr %7, align 8, !tbaa !19
  br label %9

9:                                                ; preds = %4, %6
  %10 = phi i64 [ %8, %6 ], [ 0, %4 ]
  tail call void (ptr, ...) @cli_dbgmsg(ptr noundef nonnull @.str.14, i64 noundef %1, i64 noundef %2, i64 noundef %10) #20
  %11 = getelementptr inbounds nuw i8, ptr %0, i64 8
  %12 = load i64, ptr %11, align 8, !tbaa !19
  %.not = icmp uge i64 %1, %12
  %13 = icmp ugt i64 %2, %12
  %or.cond46 = or i1 %.not, %13
  br i1 %or.cond46, label %tokens_ensure_capacity.exit, label %.preheader

.preheader:                                       ; preds = %9
  %14 = icmp ult i64 %1, %2
  br i1 %14, label %.lr.ph, label %._crit_edge

.lr.ph:                                           ; preds = %.preheader, %free_token.exit
  %.050 = phi i64 [ %23, %free_token.exit ], [ %1, %.preheader ]
  %15 = load ptr, ptr %0, align 8, !tbaa !20
  %16 = getelementptr inbounds nuw %struct.token, ptr %15, i64 %.050
  %17 = getelementptr inbounds nuw i8, ptr %16, i64 12
  %18 = load i32, ptr %17, align 4, !tbaa !27
  %19 = icmp eq i32 %18, 2
  br i1 %19, label %20, label %free_token.exit

20:                                               ; preds = %.lr.ph
  %21 = load ptr, ptr %16, align 8, !tbaa !3
  %.not.i = icmp eq ptr %21, null
  br i1 %.not.i, label %free_token.exit, label %22

22:                                               ; preds = %20
  tail call void @free(ptr noundef nonnull %21) #20
  store ptr null, ptr %16, align 8, !tbaa !3
  br label %free_token.exit

free_token.exit:                                  ; preds = %.lr.ph, %20, %22
  %23 = add nuw i64 %.050, 1
  %exitcond.not = icmp eq i64 %23, %2
  br i1 %exitcond.not, label %._crit_edge.loopexit, label %.lr.ph

._crit_edge.loopexit:                             ; preds = %free_token.exit
  %.pre = load i64, ptr %11, align 8, !tbaa !19
  br label %._crit_edge

._crit_edge:                                      ; preds = %._crit_edge.loopexit, %.preheader
  %24 = phi i64 [ %.pre, %._crit_edge.loopexit ], [ %12, %.preheader ]
  %25 = sub i64 %2, %1
  %26 = sub i64 %24, %25
  %27 = add i64 %26, %10
  %28 = getelementptr inbounds nuw i8, ptr %0, i64 16
  %29 = load i64, ptr %28, align 8, !tbaa !24
  %30 = icmp ult i64 %29, %27
  %.pre51 = load ptr, ptr %0, align 8, !tbaa !20
  br i1 %30, label %31, label %35

31:                                               ; preds = %._crit_edge
  %32 = add i64 %27, 1024
  %33 = shl i64 %32, 4
  %34 = tail call ptr @cli_max_realloc(ptr noundef %.pre51, i64 noundef %33) #20
  %.not.i47 = icmp eq ptr %34, null
  br i1 %.not.i47, label %tokens_ensure_capacity.exit, label %.thread.i

.thread.i:                                        ; preds = %31
  store ptr %34, ptr %0, align 8, !tbaa !20
  store i64 %32, ptr %28, align 8, !tbaa !24
  %.pre52 = load i64, ptr %11, align 8, !tbaa !19
  br label %35

35:                                               ; preds = %.thread.i, %._crit_edge
  %36 = phi i64 [ %.pre52, %.thread.i ], [ %24, %._crit_edge ]
  %37 = phi ptr [ %34, %.thread.i ], [ %.pre51, %._crit_edge ]
  %38 = getelementptr %struct.token, ptr %37, i64 %1
  %39 = getelementptr %struct.token, ptr %38, i64 %10
  %40 = getelementptr inbounds nuw %struct.token, ptr %37, i64 %2
  %41 = sub i64 %36, %2
  %42 = shl i64 %41, 4
  tail call void @llvm.memmove.p0.p0.i64(ptr align 8 %39, ptr align 8 %40, i64 %42, i1 false)
  %43 = icmp ne i64 %10, 0
  %or.cond = and i1 %5, %43
  br i1 %or.cond, label %44, label %49

44:                                               ; preds = %35
  %45 = load ptr, ptr %0, align 8, !tbaa !20
  %46 = getelementptr inbounds nuw %struct.token, ptr %45, i64 %1
  %47 = load ptr, ptr %3, align 8, !tbaa !20
  %48 = shl i64 %10, 4
  tail call void @llvm.memcpy.p0.p0.i64(ptr align 8 %46, ptr align 8 %47, i64 %48, i1 false)
  br label %49

49:                                               ; preds = %44, %35
  %50 = load i64, ptr %11, align 8, !tbaa !19
  %51 = sub i64 %10, %25
  %52 = add i64 %51, %50
  store i64 %52, ptr %11, align 8, !tbaa !19
  br label %tokens_ensure_capacity.exit

tokens_ensure_capacity.exit:                      ; preds = %31, %9, %49
  %.039 = phi i32 [ 0, %49 ], [ 3, %9 ], [ 20, %31 ]
  ret i32 %.039
}